target datalayout = "e-m:e-p270:32:32-p271:32:32-p272:64:64-i64:64-i128:128-f80:128-n8:16:32:64-S128"
target triple = "x86_64-pc-linux-gnu"

@.str.197 = private unnamed_addr constant [1 x i8] zeroinitializer, align 1
@.str.203 = private unnamed_addr constant [5 x i8] c"%s%u\00", align 1
@.str.204 = private unnamed_addr constant [3 x i8] c", \00", align 1
@.str.205 = private unnamed_addr constant [4 x i8] c"-%u\00", align 1

; Function Attrs: null_pointer_is_valid sspstrong uwtable
define internal void @parse_vlan_bitmap(ptr noundef %0, ptr noundef %1, i32 noundef %2, i32 noundef %3, i32 noundef %4) #0 {
  %6 = alloca ptr, align 8
  %7 = alloca ptr, align 8
  %8 = alloca i32, align 4
  %9 = alloca i32, align 4
  %10 = alloca i32, align 4
  %11 = alloca i32, align 4
  %12 = alloca i32, align 4
  %13 = alloca i8, align 1
  %14 = alloca i8, align 1
  %15 = alloca i8, align 1
  store ptr %0, ptr %6, align 8
  store ptr %1, ptr %7, align 8
  store i32 %2, ptr %8, align 4
  store i32 %3, ptr %9, align 4
  store i32 %4, ptr %10, align 4
  call void @llvm.lifetime.start.p0(i64 4, ptr %11) #4
  store i32 0, ptr %11, align 4
  call void @llvm.lifetime.start.p0(i64 4, ptr %12) #4
  store i32 0, ptr %12, align 4
  call void @llvm.lifetime.start.p0(i64 1, ptr %13) #4
  call void @llvm.lifetime.start.p0(i64 1, ptr %14) #4
  call void @llvm.lifetime.start.p0(i64 1, ptr %15) #4
  br label %16

16:                                               ; preds = %65, %5
  %17 = load i32, ptr %10, align 4
  %18 = icmp sgt i32 %17, 0
  br i1 %18, label %19, label %70

19:                                               ; preds = %16
  %20 = load ptr, ptr %7, align 8
  %21 = load i32, ptr %9, align 4
  %22 = call zeroext i8 @tvb_get_uint8(ptr noundef %20, i32 noundef %21)
  store i8 %22, ptr %14, align 1
  store i8 -128, ptr %13, align 1
  store i8 0, ptr %15, align 1
  br label %23

23:                                               ; preds = %62, %19
  %24 = load i8, ptr %15, align 1
  %25 = zext i8 %24 to i32
  %26 = icmp slt i32 %25, 8
  br i1 %26, label %27, label %65

27:                                               ; preds = %23
  %28 = load i8, ptr %14, align 1
  %29 = zext i8 %28 to i32
  %30 = load i8, ptr %13, align 1
  %31 = zext i8 %30 to i32
  %32 = and i32 %29, %31
  %33 = icmp ne i32 %32, 0
  br i1 %33, label %34, label %47

34:                                               ; preds = %27
  %35 = load i32, ptr %11, align 4
  %36 = icmp eq i32 %35, 0
  br i1 %36, label %37, label %44

37:                                               ; preds = %34
  %38 = load ptr, ptr %6, align 8
  %39 = load i32, ptr %12, align 4
  %40 = add i32 %39, 1
  store i32 %40, ptr %12, align 4
  %41 = icmp ne i32 %39, 0
  %42 = select i1 %41, ptr @.str.204, ptr @.str.197
  %43 = load i32, ptr %8, align 4
  call void (ptr, ptr, ...) @proto_item_append_text(ptr noundef %38, ptr noundef @.str.203, ptr noundef %42, i32 noundef %43)
  br label %44

44:                                               ; preds = %37, %34
  %45 = load i32, ptr %11, align 4
  %46 = add i32 %45, 1
  store i32 %46, ptr %11, align 4
  br label %55

47:                                               ; preds = %27
  %48 = load i32, ptr %11, align 4
  %49 = icmp sgt i32 %48, 1
  br i1 %49, label %50, label %54

50:                                               ; preds = %47
  %51 = load ptr, ptr %6, align 8
  %52 = load i32, ptr %8, align 4
  %53 = sub i32 %52, 1
  call void (ptr, ptr, ...) @proto_item_append_text(ptr noundef %51, ptr noundef @.str.205, i32 noundef %53)
  br label %54

54:                                               ; preds = %50, %47
  store i32 0, ptr %11, align 4
  br label %55

55:                                               ; preds = %54, %44
  %56 = load i32, ptr %8, align 4
  %57 = add i32 %56, 1
  store i32 %57, ptr %8, align 4
  %58 = load i8, ptr %13, align 1
  %59 = zext i8 %58 to i32
  %60 = ashr i32 %59, 1
  %61 = trunc i32 %60 to i8
  store i8 %61, ptr %13, align 1
  br label %62

62:                                               ; preds = %55
  %63 = load i8, ptr %15, align 1
  %64 = add i8 %63, 1
  store i8 %64, ptr %15, align 1
  br label %23, !llvm.loop !13

65:                                               ; preds = %23
  %66 = load i32, ptr %9, align 4
  %67 = add i32 %66, 1
  store i32 %67, ptr %9, align 4
  %68 = load i32, ptr %10, align 4
  %69 = add i32 %68, -1
  store i32 %69, ptr %10, align 4
  br label %16, !llvm.loop !14

70:                                               ; preds = %16
  %71 = load i32, ptr %11, align 4
  %72 = icmp sgt i32 %71, 1
  br i1 %72, label %73, label %77

73:                                               ; preds = %70
  %74 = load ptr, ptr %6, align 8
  %75 = load i32, ptr %8, align 4
  %76 = sub i32 %75, 1
  call void (ptr, ptr, ...) @proto_item_append_text(ptr noundef %74, ptr noundef @.str.205, i32 noundef %76)
  br label %77

77:                                               ; preds = %73, %70
  call void @llvm.lifetime.end.p0(i64 1, ptr %15) #4
  call void @llvm.lifetime.end.p0(i64 1, ptr %14) #4
  call void @llvm.lifetime.end.p0(i64 1, ptr %13) #4
  call void @llvm.lifetime.end.p0(i64 4, ptr %12) #4
  call void @llvm.lifetime.end.p0(i64 4, ptr %11) #4
  ret void
}