; Function Attrs: null_pointer_is_valid sspstrong uwtable
define internal fastcc void @parse_vlan_bitmap(ptr noundef %0, ptr noundef %1, i32 noundef range(i32 0, 4096) %2, i32 noundef %3, i32 noundef range(i32 -2, 254) %4) unnamed_addr #0 {
  %6 = icmp sgt i32 %4, 0
  br i1 %6, label %.lr.ph, label %._crit_edge.thread

.lr.ph:                                           ; preds = %5, %26
  %.02140 = phi i32 [ %23, %26 ], [ %2, %5 ]
  %.02339 = phi i32 [ %.3, %26 ], [ 0, %5 ]
  %.02538 = phi i32 [ %.227, %26 ], [ 0, %5 ]
  %.02837 = phi i32 [ %28, %26 ], [ %4, %5 ]
  %.02936 = phi i32 [ %27, %26 ], [ %3, %5 ]
  %7 = tail call zeroext i8 @tvb_get_uint8(ptr noundef %1, i32 noundef %.02936)
  %8 = zext i8 %7 to i32
  br label %9

9:                                                ; preds = %.lr.ph, %22
  %.035 = phi i8 [ 0, %.lr.ph ], [ %25, %22 ]
  %.134 = phi i32 [ %.02140, %.lr.ph ], [ %23, %22 ]
  %.02233 = phi i32 [ 128, %.lr.ph ], [ %24, %22 ]
  %.12432 = phi i32 [ %.02339, %.lr.ph ], [ %.3, %22 ]
  %.12631 = phi i32 [ %.02538, %.lr.ph ], [ %.227, %22 ]
  %10 = and i32 %.02233, %8
  %.not = icmp eq i32 %10, 0
  br i1 %.not, label %18, label %11

11:                                               ; preds = %9
  %12 = icmp eq i32 %.12631, 0
  br i1 %12, label %13, label %16

13:                                               ; preds = %11
  %14 = add i32 %.12432, 1
  %.not30 = icmp eq i32 %.12432, 0
  %15 = select i1 %.not30, ptr @.str.197, ptr @.str.204
  tail call void (ptr, ptr, ...) @proto_item_append_text(ptr noundef %0, ptr noundef nonnull @.str.203, ptr noundef nonnull %15, i32 noundef %.134)
  br label %16

16:                                               ; preds = %13, %11
  %.2 = phi i32 [ %14, %13 ], [ %.12432, %11 ]
  %17 = add i32 %.12631, 1
  br label %22

18:                                               ; preds = %9
  %19 = icmp sgt i32 %.12631, 1
  br i1 %19, label %20, label %22

20:                                               ; preds = %18
  %21 = add i32 %.134, -1
  tail call void (ptr, ptr, ...) @proto_item_append_text(ptr noundef %0, ptr noundef nonnull @.str.205, i32 noundef %21)
  br label %22

22:                                               ; preds = %18, %20, %16
  %.227 = phi i32 [ %17, %16 ], [ 0, %20 ], [ 0, %18 ]
  %.3 = phi i32 [ %.2, %16 ], [ %.12432, %20 ], [ %.12432, %18 ]
  %23 = add i32 %.134, 1
  %24 = lshr i32 %.02233, 1
  %25 = add nuw nsw i8 %.035, 1
  %exitcond.not = icmp eq i8 %25, 8
  br i1 %exitcond.not, label %26, label %9, !llvm.loop !10

26:                                               ; preds = %22
  %27 = add i32 %.02936, 1
  %28 = add nsw i32 %.02837, -1
  %29 = icmp sgt i32 %.02837, 1
  br i1 %29, label %.lr.ph, label %._crit_edge, !llvm.loop !11

._crit_edge:                                      ; preds = %26
  %30 = icmp sgt i32 %.227, 1
  br i1 %30, label %31, label %._crit_edge.thread

31:                                               ; preds = %._crit_edge
  tail call void (ptr, ptr, ...) @proto_item_append_text(ptr noundef %0, ptr noundef nonnull @.str.205, i32 noundef %.134)
  br label %._crit_edge.thread

._crit_edge.thread:                               ; preds = %5, %31, %._crit_edge
  ret void
}